#include <math.h>
#include <stdio.h>
#include <stdlib.h>
#include <string.h>

int main(){
	char a[1000];
	gets(a);
	int i=0;
	int m;
	m=strlen(a);
	for(i=0;i<m;i++){
		if((i==0&&a[i]==' ')||(a[i-1]==' '&&a[i]==' ')){
			continue;
		}else{
			printf("%c",a[i]);
		}
	}

		return 0;
	}
